target datalayout = "e-m:e-p270:32:32-p271:32:32-p272:64:64-i64:64-i128:128-f80:128-n8:16:32:64-S128"
target triple = "x86_64-pc-linux-gnu"

@.str.26 = private unnamed_addr constant [28 x i8] c"buffer access out of bounds\00", align 1

; Function Attrs: mustprogress uwtable
define internal noundef i32 @_ZL11buffer_copyP9lua_State(ptr noundef %0) #0 {
  %2 = alloca ptr, align 8
  %3 = alloca i64, align 8
  %4 = alloca ptr, align 8
  %5 = alloca i32, align 4
  %6 = alloca i64, align 8
  %7 = alloca ptr, align 8
  %8 = alloca i32, align 4
  %9 = alloca i32, align 4
  store ptr %0, ptr %2, align 8
  store i64 0, ptr %3, align 8
  %10 = load ptr, ptr %2, align 8
  %11 = call noundef ptr @_Z16luaL_checkbufferP9lua_StateiPm(ptr noundef %10, i32 noundef 1, ptr noundef %3)
  store ptr %11, ptr %4, align 8
  %12 = load ptr, ptr %2, align 8
  %13 = call noundef i32 @_Z17luaL_checkintegerP9lua_Statei(ptr noundef %12, i32 noundef 2)
  store i32 %13, ptr %5, align 4
  store i64 0, ptr %6, align 8
  %14 = load ptr, ptr %2, align 8
  %15 = call noundef ptr @_Z16luaL_checkbufferP9lua_StateiPm(ptr noundef %14, i32 noundef 3, ptr noundef %6)
  store ptr %15, ptr %7, align 8
  %16 = load ptr, ptr %2, align 8
  %17 = call noundef i32 @_Z15luaL_optintegerP9lua_Stateii(ptr noundef %16, i32 noundef 4, i32 noundef 0)
  store i32 %17, ptr %8, align 4
  %18 = load ptr, ptr %2, align 8
  %19 = load i64, ptr %6, align 8
  %20 = trunc i64 %19 to i32
  %21 = load i32, ptr %8, align 4
  %22 = sub nsw i32 %20, %21
  %23 = call noundef i32 @_Z15luaL_optintegerP9lua_Stateii(ptr noundef %18, i32 noundef 5, i32 noundef %22)
  store i32 %23, ptr %9, align 4
  %24 = load i32, ptr %9, align 4
  %25 = icmp slt i32 %24, 0
  br i1 %25, label %26, label %28

26:                                               ; preds = %1
  %27 = load ptr, ptr %2, align 8
  call void (ptr, ptr, ...) @_Z11luaL_errorLP9lua_StatePKcz(ptr noundef %27, ptr noundef @.str.26) #5
  unreachable

28:                                               ; preds = %1
  %29 = load i32, ptr %8, align 4
  %30 = zext i32 %29 to i64
  %31 = load i32, ptr %9, align 4
  %32 = zext i32 %31 to i64
  %33 = add i64 %30, %32
  %34 = load i64, ptr %6, align 8
  %35 = icmp ugt i64 %33, %34
  br i1 %35, label %36, label %38

36:                                               ; preds = %28
  %37 = load ptr, ptr %2, align 8
  call void (ptr, ptr, ...) @_Z11luaL_errorLP9lua_StatePKcz(ptr noundef %37, ptr noundef @.str.26) #5
  unreachable

38:                                               ; preds = %28
  %39 = load i32, ptr %5, align 4
  %40 = zext i32 %39 to i64
  %41 = load i32, ptr %9, align 4
  %42 = zext i32 %41 to i64
  %43 = add i64 %40, %42
  %44 = load i64, ptr %3, align 8
  %45 = icmp ugt i64 %43, %44
  br i1 %45, label %46, label %48

46:                                               ; preds = %38
  %47 = load ptr, ptr %2, align 8
  call void (ptr, ptr, ...) @_Z11luaL_errorLP9lua_StatePKcz(ptr noundef %47, ptr noundef @.str.26) #5
  unreachable

48:                                               ; preds = %38
  %49 = load ptr, ptr %4, align 8
  %50 = load i32, ptr %5, align 4
  %51 = sext i32 %50 to i64
  %52 = getelementptr inbounds i8, ptr %49, i64 %51
  %53 = load ptr, ptr %7, align 8
  %54 = load i32, ptr %8, align 4
  %55 = sext i32 %54 to i64
  %56 = getelementptr inbounds i8, ptr %53, i64 %55
  %57 = load i32, ptr %9, align 4
  %58 = sext i32 %57 to i64
  call void @llvm.memmove.p0.p0.i64(ptr align 1 %52, ptr align 1 %56, i64 %58, i1 false)
  ret i32 0
}