; Function Attrs: mustprogress uwtable
define internal noundef i32 @_ZL11buffer_copyP9lua_State(ptr noundef %0) #0 {
  %2 = alloca i64, align 8
  %3 = alloca i64, align 8
  store i64 0, ptr %2, align 8
  %4 = call noundef ptr @_Z16luaL_checkbufferP9lua_StateiPm(ptr noundef %0, i32 noundef 1, ptr noundef nonnull %2)
  %5 = call noundef i32 @_Z17luaL_checkintegerP9lua_Statei(ptr noundef %0, i32 noundef 2)
  store i64 0, ptr %3, align 8
  %6 = call noundef ptr @_Z16luaL_checkbufferP9lua_StateiPm(ptr noundef %0, i32 noundef 3, ptr noundef nonnull %3)
  %7 = call noundef i32 @_Z15luaL_optintegerP9lua_Stateii(ptr noundef %0, i32 noundef 4, i32 noundef 0)
  %8 = load i64, ptr %3, align 8
  %9 = trunc i64 %8 to i32
  %10 = sub nsw i32 %9, %7
  %11 = call noundef i32 @_Z15luaL_optintegerP9lua_Stateii(ptr noundef %0, i32 noundef 5, i32 noundef %10)
  %12 = icmp slt i32 %11, 0
  br i1 %12, label %13, label %14

13:                                               ; preds = %1
  call void (ptr, ptr, ...) @_Z11luaL_errorLP9lua_StatePKcz(ptr noundef %0, ptr noundef nonnull @.str.26) #5
  unreachable

14:                                               ; preds = %1
  %15 = zext i32 %7 to i64
  %16 = zext nneg i32 %11 to i64
  %17 = add nuw nsw i64 %16, %15
  %18 = load i64, ptr %3, align 8
  %19 = icmp ugt i64 %17, %18
  br i1 %19, label %20, label %21

20:                                               ; preds = %14
  call void (ptr, ptr, ...) @_Z11luaL_errorLP9lua_StatePKcz(ptr noundef %0, ptr noundef nonnull @.str.26) #5
  unreachable

21:                                               ; preds = %14
  %22 = zext i32 %5 to i64
  %23 = add nuw nsw i64 %16, %22
  %24 = load i64, ptr %2, align 8
  %25 = icmp ugt i64 %23, %24
  br i1 %25, label %26, label %27

26:                                               ; preds = %21
  call void (ptr, ptr, ...) @_Z11luaL_errorLP9lua_StatePKcz(ptr noundef %0, ptr noundef nonnull @.str.26) #5
  unreachable

27:                                               ; preds = %21
  %28 = sext i32 %5 to i64
  %29 = getelementptr inbounds i8, ptr %4, i64 %28
  %30 = sext i32 %7 to i64
  %31 = getelementptr inbounds i8, ptr %6, i64 %30
  call void @llvm.memmove.p0.p0.i64(ptr align 1 %29, ptr align 1 %31, i64 %16, i1 false)
  ret i32 0
}